target datalayout = "e-m:e-p270:32:32-p271:32:32-p272:64:64-i64:64-i128:128-f80:128-n8:16:32:64-S128"
target triple = "x86_64-pc-linux-gnu"

@fForceZero = internal global i32 0, align 4

; Function Attrs: nounwind uwtable
define internal i32 @Abc_LitNot(i32 noundef %0) #0 {
  %2 = alloca i32, align 4
  store i32 %0, ptr %2, align 4
  %3 = load i32, ptr %2, align 4
  %4 = xor i32 %3, 1
  ret i32 %4
}

; Function Attrs: nounwind uwtable
define void @Gia_ManDualDc(ptr noundef %0, ptr noundef %1, ptr noundef %2, ptr noundef %3) #0 {
  %5 = alloca ptr, align 8
  %6 = alloca ptr, align 8
  %7 = alloca ptr, align 8
  %8 = alloca ptr, align 8
  store ptr %0, ptr %5, align 8
  store ptr %1, ptr %6, align 8
  store ptr %2, ptr %7, align 8
  store ptr %3, ptr %8, align 8
  %9 = load ptr, ptr %6, align 8
  %10 = getelementptr inbounds i32, ptr %9, i64 0
  %11 = load i32, ptr %10, align 4
  %12 = load ptr, ptr %8, align 8
  %13 = getelementptr inbounds i32, ptr %12, i64 0
  store i32 %11, ptr %13, align 4
  %14 = load ptr, ptr %5, align 8
  %15 = load ptr, ptr %5, align 8
  %16 = load ptr, ptr %7, align 8
  %17 = getelementptr inbounds i32, ptr %16, i64 0
  %18 = load i32, ptr %17, align 4
  %19 = load ptr, ptr %7, align 8
  %20 = getelementptr inbounds i32, ptr %19, i64 1
  %21 = load i32, ptr %20, align 4
  %22 = call i32 @Gia_ManHashOr(ptr noundef %15, i32 noundef %18, i32 noundef %21)
  %23 = load ptr, ptr %6, align 8
  %24 = getelementptr inbounds i32, ptr %23, i64 1
  %25 = load i32, ptr %24, align 4
  %26 = call i32 @Gia_ManHashOr(ptr noundef %14, i32 noundef %22, i32 noundef %25)
  %27 = load ptr, ptr %8, align 8
  %28 = getelementptr inbounds i32, ptr %27, i64 1
  store i32 %26, ptr %28, align 4
  %29 = load i32, ptr @fForceZero, align 4
  %30 = icmp ne i32 %29, 0
  br i1 %30, label %31, label %43

31:                                               ; preds = %4
  %32 = load ptr, ptr %5, align 8
  %33 = load ptr, ptr %8, align 8
  %34 = getelementptr inbounds i32, ptr %33, i64 0
  %35 = load i32, ptr %34, align 4
  %36 = load ptr, ptr %8, align 8
  %37 = getelementptr inbounds i32, ptr %36, i64 1
  %38 = load i32, ptr %37, align 4
  %39 = call i32 @Abc_LitNot(i32 noundef %38)
  %40 = call i32 @Gia_ManHashAnd(ptr noundef %32, i32 noundef %35, i32 noundef %39)
  %41 = load ptr, ptr %8, align 8
  %42 = getelementptr inbounds i32, ptr %41, i64 0
  store i32 %40, ptr %42, align 4
  br label %43

43:                                               ; preds = %31, %4
  ret void
}