; Function Attrs: nounwind uwtable
define void @Gia_ManDualDc(ptr noundef %0, ptr noundef readonly captures(none) %1, ptr noundef readonly captures(none) %2, ptr noundef writeonly captures(none) initializes((0, 8)) %3) local_unnamed_addr #0 {
  %5 = load i32, ptr %1, align 4
  store i32 %5, ptr %3, align 4
  %6 = load i32, ptr %2, align 4
  %7 = getelementptr inbounds nuw i8, ptr %2, i64 4
  %8 = load i32, ptr %7, align 4
  %9 = tail call i32 @Gia_ManHashOr(ptr noundef %0, i32 noundef %6, i32 noundef %8) #18
  %10 = getelementptr inbounds nuw i8, ptr %1, i64 4
  %11 = load i32, ptr %10, align 4
  %12 = tail call i32 @Gia_ManHashOr(ptr noundef %0, i32 noundef %9, i32 noundef %11) #18
  %13 = getelementptr inbounds nuw i8, ptr %3, i64 4
  store i32 %12, ptr %13, align 4
  ret void
}